; Function Attrs: mustprogress nounwind uwtable
define dso_local noundef ptr @LLVMGetNamedGlobal(ptr noundef %0, ptr noundef %1) local_unnamed_addr #0 {
  %.not.i = icmp eq ptr %1, null
  br i1 %.not.i, label %_ZN4llvm9StringRefC2EPKc.exit, label %3

3:                                                ; preds = %2
  %4 = tail call noundef i64 @strlen(ptr noundef nonnull dereferenceable(1) %1) #35
  br label %_ZN4llvm9StringRefC2EPKc.exit

_ZN4llvm9StringRefC2EPKc.exit:                    ; preds = %2, %3
  %5 = phi i64 [ %4, %3 ], [ 0, %2 ]
  %6 = tail call noundef ptr @_ZNK4llvm6Module17getGlobalVariableENS_9StringRefEb(ptr noundef nonnull align 8 dereferenceable(857) %0, ptr %1, i64 %5, i1 noundef zeroext true) #35
  ret ptr %6
}